target datalayout = "e-m:e-p270:32:32-p271:32:32-p272:64:64-i64:64-i128:128-f80:128-n8:16:32:64-S128"
target triple = "x86_64-pc-linux-gnu"

; Function Attrs: nounwind uwtable
define dso_local i32 @Curl_timestrcmp(ptr noundef %0, ptr noundef %1) #0 {
  %3 = alloca i32, align 4
  %4 = alloca ptr, align 8
  %5 = alloca ptr, align 8
  %6 = alloca i32, align 4
  %7 = alloca i32, align 4
  %8 = alloca i32, align 4
  store ptr %0, ptr %4, align 8, !tbaa !7
  store ptr %1, ptr %5, align 8, !tbaa !7
  call void @llvm.lifetime.start.p0(i64 4, ptr %6) #4
  store i32 0, ptr %6, align 4, !tbaa !17
  call void @llvm.lifetime.start.p0(i64 4, ptr %7) #4
  store i32 0, ptr %7, align 4, !tbaa !17
  %9 = load ptr, ptr %4, align 8, !tbaa !7
  %10 = icmp ne ptr %9, null
  br i1 %10, label %11, label %50

11:                                               ; preds = %2
  %12 = load ptr, ptr %5, align 8, !tbaa !7
  %13 = icmp ne ptr %12, null
  br i1 %13, label %14, label %50

14:                                               ; preds = %11
  br label %15

15:                                               ; preds = %46, %14
  br label %16

16:                                               ; preds = %15
  %17 = load ptr, ptr %4, align 8, !tbaa !7
  %18 = load i32, ptr %7, align 4, !tbaa !17
  %19 = sext i32 %18 to i64
  %20 = getelementptr inbounds i8, ptr %17, i64 %19
  %21 = load i8, ptr %20, align 1, !tbaa !4
  %22 = sext i8 %21 to i32
  %23 = load ptr, ptr %5, align 8, !tbaa !7
  %24 = load i32, ptr %7, align 4, !tbaa !17
  %25 = sext i32 %24 to i64
  %26 = getelementptr inbounds i8, ptr %23, i64 %25
  %27 = load i8, ptr %26, align 1, !tbaa !4
  %28 = sext i8 %27 to i32
  %29 = xor i32 %22, %28
  %30 = load i32, ptr %6, align 4, !tbaa !17
  %31 = or i32 %30, %29
  store i32 %31, ptr %6, align 4, !tbaa !17
  %32 = load ptr, ptr %4, align 8, !tbaa !7
  %33 = load i32, ptr %7, align 4, !tbaa !17
  %34 = sext i32 %33 to i64
  %35 = getelementptr inbounds i8, ptr %32, i64 %34
  %36 = load i8, ptr %35, align 1, !tbaa !4
  %37 = icmp ne i8 %36, 0
  br i1 %37, label %38, label %45

38:                                               ; preds = %16
  %39 = load ptr, ptr %5, align 8, !tbaa !7
  %40 = load i32, ptr %7, align 4, !tbaa !17
  %41 = sext i32 %40 to i64
  %42 = getelementptr inbounds i8, ptr %39, i64 %41
  %43 = load i8, ptr %42, align 1, !tbaa !4
  %44 = icmp ne i8 %43, 0
  br i1 %44, label %46, label %45

45:                                               ; preds = %38, %16
  br label %49

46:                                               ; preds = %38
  %47 = load i32, ptr %7, align 4, !tbaa !17
  %48 = add nsw i32 %47, 1
  store i32 %48, ptr %7, align 4, !tbaa !17
  br label %15

49:                                               ; preds = %45
  br label %59

50:                                               ; preds = %11, %2
  %51 = load ptr, ptr %4, align 8, !tbaa !7
  %52 = icmp ne ptr %51, null
  br i1 %52, label %56, label %53

53:                                               ; preds = %50
  %54 = load ptr, ptr %5, align 8, !tbaa !7
  %55 = icmp ne ptr %54, null
  br label %56

56:                                               ; preds = %53, %50
  %57 = phi i1 [ true, %50 ], [ %55, %53 ]
  %58 = zext i1 %57 to i32
  store i32 %58, ptr %3, align 4
  store i32 1, ptr %8, align 4
  br label %61

59:                                               ; preds = %49
  %60 = load i32, ptr %6, align 4, !tbaa !17
  store i32 %60, ptr %3, align 4
  store i32 1, ptr %8, align 4
  br label %61

61:                                               ; preds = %59, %56
  call void @llvm.lifetime.end.p0(i64 4, ptr %7) #4
  call void @llvm.lifetime.end.p0(i64 4, ptr %6) #4
  %62 = load i32, ptr %3, align 4
  ret i32 %62
}