; Function Attrs: nofree norecurse nosync nounwind memory(argmem: read) uwtable
define dso_local i32 @Curl_timestrcmp(ptr noundef readonly %0, ptr noundef readonly %1) local_unnamed_addr #1 {
  %3 = icmp ne ptr %0, null
  %4 = icmp ne ptr %1, null
  %or.cond = and i1 %3, %4
  br i1 %or.cond, label %.preheader, label %12

.preheader:                                       ; preds = %2, %.preheader
  %indvars.iv = phi i64 [ %indvars.iv.next, %.preheader ], [ 0, %2 ]
  %.016 = phi i32 [ %11, %.preheader ], [ 0, %2 ]
  %5 = getelementptr inbounds nuw i8, ptr %0, i64 %indvars.iv
  %6 = load i8, ptr %5, align 1, !tbaa !4
  %7 = getelementptr inbounds nuw i8, ptr %1, i64 %indvars.iv
  %8 = load i8, ptr %7, align 1, !tbaa !4
  %9 = xor i8 %8, %6
  %10 = sext i8 %9 to i32
  %11 = or i32 %.016, %10
  %.not = icmp eq i8 %6, 0
  %.not18 = icmp eq i8 %8, 0
  %or.cond19 = select i1 %.not, i1 true, i1 %.not18
  %indvars.iv.next = add nuw nsw i64 %indvars.iv, 1
  br i1 %or.cond19, label %.loopexit, label %.preheader

12:                                               ; preds = %2
  %13 = or i1 %3, %4
  %14 = zext i1 %13 to i32
  br label %.loopexit

.loopexit:                                        ; preds = %.preheader, %12
  %.017 = phi i32 [ %14, %12 ], [ %11, %.preheader ]
  ret i32 %.017
}